target datalayout = "e-m:e-p270:32:32-p271:32:32-p272:64:64-i64:64-i128:128-f80:128-n8:16:32:64-S128"
target triple = "x86_64-pc-linux-gnu"

%struct.anon = type { [4 x ptr], [4 x ptr], i32, i32, i32, i32, i32, i32, i32, i32, i32, i32, [3 x i32], [3 x i32], [20 x i32], [20 x i32], [2 x i32], [2 x i32], [6 x [6 x double]], [6 x double], [6 x double], [6 x double], [6 x double], double, double, double, [2400 x double], [2400 x double], ptr, ptr, ptr, ptr, ptr, i32 }

@.str.31 = private unnamed_addr constant [57 x i8] c"\0AMaximum sensitivity with respect to I.C. of species %d\0A\00", align 1
@.str.32 = private unnamed_addr constant [19 x i8] c"  lambda max = %e\0A\00", align 1
@.str.33 = private unnamed_addr constant [4 x i8] c"at\0A\00", align 1
@.str.34 = private unnamed_addr constant [19 x i8] c"  x = %e\0A  y = %e\0A\00", align 1

; Function Attrs: nounwind uwtable
define internal void @PrintOutput(ptr noundef %0, i32 noundef %1, i32 noundef %2, ptr noundef %3) #0 {
  %5 = alloca ptr, align 8
  %6 = alloca i32, align 4
  %7 = alloca i32, align 4
  %8 = alloca ptr, align 8
  %9 = alloca i32, align 4
  %10 = alloca i32, align 4
  %11 = alloca i32, align 4
  %12 = alloca ptr, align 8
  %13 = alloca double, align 8
  %14 = alloca double, align 8
  %15 = alloca double, align 8
  %16 = alloca double, align 8
  store ptr %0, ptr %5, align 8, !tbaa !13
  store i32 %1, ptr %6, align 4, !tbaa !4
  store i32 %2, ptr %7, align 4, !tbaa !4
  store ptr %3, ptr %8, align 8, !tbaa !15
  call void @llvm.lifetime.start.p0(i64 4, ptr %9) #6
  call void @llvm.lifetime.start.p0(i64 4, ptr %10) #6
  call void @llvm.lifetime.start.p0(i64 4, ptr %11) #6
  call void @llvm.lifetime.start.p0(i64 8, ptr %12) #6
  call void @llvm.lifetime.start.p0(i64 8, ptr %13) #6
  call void @llvm.lifetime.start.p0(i64 8, ptr %14) #6
  call void @llvm.lifetime.start.p0(i64 8, ptr %15) #6
  call void @llvm.lifetime.start.p0(i64 8, ptr %16) #6
  store double 0.000000e+00, ptr %16, align 8, !tbaa !11
  store double 0.000000e+00, ptr %15, align 8, !tbaa !11
  %17 = load ptr, ptr %5, align 8, !tbaa !13
  %18 = call ptr @N_VGetArrayPointer(ptr noundef %17)
  store ptr %18, ptr %12, align 8, !tbaa !39
  store i32 1, ptr %9, align 4, !tbaa !4
  br label %19

19:                                               ; preds = %81, %4
  %20 = load i32, ptr %9, align 4, !tbaa !4
  %21 = load i32, ptr %6, align 4, !tbaa !4
  %22 = icmp sle i32 %20, %21
  br i1 %22, label %23, label %84

23:                                               ; preds = %19
  store double 0.000000e+00, ptr %14, align 8, !tbaa !11
  store i32 19, ptr %11, align 4, !tbaa !4
  br label %24

24:                                               ; preds = %69, %23
  %25 = load i32, ptr %11, align 4, !tbaa !4
  %26 = icmp sge i32 %25, 0
  br i1 %26, label %27, label %72

27:                                               ; preds = %24
  store i32 0, ptr %10, align 4, !tbaa !4
  br label %28

28:                                               ; preds = %65, %27
  %29 = load i32, ptr %10, align 4, !tbaa !4
  %30 = icmp slt i32 %29, 20
  br i1 %30, label %31, label %68

31:                                               ; preds = %28
  %32 = load ptr, ptr %12, align 8, !tbaa !39
  %33 = load i32, ptr %9, align 4, !tbaa !4
  %34 = sub nsw i32 %33, 1
  %35 = load i32, ptr %10, align 4, !tbaa !4
  %36 = load i32, ptr %6, align 4, !tbaa !4
  %37 = mul nsw i32 %35, %36
  %38 = add nsw i32 %34, %37
  %39 = load i32, ptr %11, align 4, !tbaa !4
  %40 = load i32, ptr %7, align 4, !tbaa !4
  %41 = mul nsw i32 %39, %40
  %42 = add nsw i32 %38, %41
  %43 = sext i32 %42 to i64
  %44 = getelementptr inbounds double, ptr %32, i64 %43
  %45 = load double, ptr %44, align 8, !tbaa !11
  store double %45, ptr %13, align 8, !tbaa !11
  %46 = load double, ptr %13, align 8, !tbaa !11
  %47 = call double @llvm.fabs.f64(double %46)
  %48 = load double, ptr %14, align 8, !tbaa !11
  %49 = fcmp ogt double %47, %48
  br i1 %49, label %50, label %64

50:                                               ; preds = %31
  %51 = load double, ptr %13, align 8, !tbaa !11
  store double %51, ptr %14, align 8, !tbaa !11
  %52 = load i32, ptr %10, align 4, !tbaa !4
  %53 = sitofp i32 %52 to double
  %54 = load ptr, ptr %8, align 8, !tbaa !15
  %55 = getelementptr inbounds nuw %struct.anon, ptr %54, i32 0, i32 23
  %56 = load double, ptr %55, align 8, !tbaa !43
  %57 = fmul double %53, %56
  store double %57, ptr %15, align 8, !tbaa !11
  %58 = load i32, ptr %11, align 4, !tbaa !4
  %59 = sitofp i32 %58 to double
  %60 = load ptr, ptr %8, align 8, !tbaa !15
  %61 = getelementptr inbounds nuw %struct.anon, ptr %60, i32 0, i32 24
  %62 = load double, ptr %61, align 8, !tbaa !44
  %63 = fmul double %59, %62
  store double %63, ptr %16, align 8, !tbaa !11
  br label %64

64:                                               ; preds = %50, %31
  br label %65

65:                                               ; preds = %64
  %66 = load i32, ptr %10, align 4, !tbaa !4
  %67 = add nsw i32 %66, 1
  store i32 %67, ptr %10, align 4, !tbaa !4
  br label %28

68:                                               ; preds = %28
  br label %69

69:                                               ; preds = %68
  %70 = load i32, ptr %11, align 4, !tbaa !4
  %71 = add nsw i32 %70, -1
  store i32 %71, ptr %11, align 4, !tbaa !4
  br label %24

72:                                               ; preds = %24
  %73 = load i32, ptr %9, align 4, !tbaa !4
  %74 = call i32 (ptr, ...) @printf(ptr noundef @.str.31, i32 noundef %73)
  %75 = load double, ptr %14, align 8, !tbaa !11
  %76 = call i32 (ptr, ...) @printf(ptr noundef @.str.32, double noundef %75)
  %77 = call i32 (ptr, ...) @printf(ptr noundef @.str.33)
  %78 = load double, ptr %15, align 8, !tbaa !11
  %79 = load double, ptr %16, align 8, !tbaa !11
  %80 = call i32 (ptr, ...) @printf(ptr noundef @.str.34, double noundef %78, double noundef %79)
  br label %81

81:                                               ; preds = %72
  %82 = load i32, ptr %9, align 4, !tbaa !4
  %83 = add nsw i32 %82, 1
  store i32 %83, ptr %9, align 4, !tbaa !4
  br label %19

84:                                               ; preds = %19
  call void @llvm.lifetime.end.p0(i64 8, ptr %16) #6
  call void @llvm.lifetime.end.p0(i64 8, ptr %15) #6
  call void @llvm.lifetime.end.p0(i64 8, ptr %14) #6
  call void @llvm.lifetime.end.p0(i64 8, ptr %13) #6
  call void @llvm.lifetime.end.p0(i64 8, ptr %12) #6
  call void @llvm.lifetime.end.p0(i64 4, ptr %11) #6
  call void @llvm.lifetime.end.p0(i64 4, ptr %10) #6
  call void @llvm.lifetime.end.p0(i64 4, ptr %9) #6
  ret void
}