; Function Attrs: nounwind uwtable
define internal fastcc void @PrintOutput(ptr noundef %0, ptr noundef readonly captures(none) %1) unnamed_addr #0 {
  %3 = tail call ptr @N_VGetArrayPointer(ptr noundef %0) #9
  %4 = getelementptr inbounds nuw i8, ptr %1, i64 784
  %5 = getelementptr inbounds nuw i8, ptr %1, i64 792
  %invariant.gep = getelementptr i8, ptr %3, i64 -8
  br label %.preheader35

.preheader35:                                     ; preds = %2, %23
  %indvars.iv51 = phi i64 [ 1, %2 ], [ %indvars.iv.next52, %23 ]
  %.046 = phi double [ 0.000000e+00, %2 ], [ %.3, %23 ]
  %.02445 = phi double [ 0.000000e+00, %2 ], [ %.327, %23 ]
  %gep = getelementptr double, ptr %invariant.gep, i64 %indvars.iv51
  br label %.preheader

.preheader:                                       ; preds = %.preheader35, %22
  %indvars.iv48 = phi i64 [ 19, %.preheader35 ], [ %indvars.iv.next49, %22 ]
  %.143 = phi double [ %.046, %.preheader35 ], [ %.3, %22 ]
  %.12542 = phi double [ %.02445, %.preheader35 ], [ %.327, %22 ]
  %.02841 = phi double [ 0.000000e+00, %.preheader35 ], [ %.230, %22 ]
  %6 = trunc nuw nsw i64 %indvars.iv48 to i32
  %7 = uitofp nneg i32 %6 to double
  %.idx = mul i64 %indvars.iv48, 960
  %8 = getelementptr i8, ptr %gep, i64 %.idx
  br label %9

9:                                                ; preds = %.preheader, %21
  %indvars.iv = phi i64 [ 0, %.preheader ], [ %indvars.iv.next, %21 ]
  %.239 = phi double [ %.143, %.preheader ], [ %.3, %21 ]
  %.22638 = phi double [ %.12542, %.preheader ], [ %.327, %21 ]
  %.12937 = phi double [ %.02841, %.preheader ], [ %.230, %21 ]
  %.idx55 = mul i64 %indvars.iv, 48
  %10 = getelementptr i8, ptr %8, i64 %.idx55
  %11 = load double, ptr %10, align 8, !tbaa !24
  %12 = tail call double @llvm.fabs.f64(double %11)
  %13 = fcmp ogt double %12, %.12937
  br i1 %13, label %14, label %21

14:                                               ; preds = %9
  %15 = trunc nuw nsw i64 %indvars.iv to i32
  %16 = uitofp nneg i32 %15 to double
  %17 = load double, ptr %4, align 8, !tbaa !26
  %18 = fmul double %17, %16
  %19 = load double, ptr %5, align 8, !tbaa !27
  %20 = fmul double %19, %7
  br label %21

21:                                               ; preds = %9, %14
  %.230 = phi double [ %11, %14 ], [ %.12937, %9 ]
  %.327 = phi double [ %18, %14 ], [ %.22638, %9 ]
  %.3 = phi double [ %20, %14 ], [ %.239, %9 ]
  %indvars.iv.next = add nuw nsw i64 %indvars.iv, 1
  %exitcond.not = icmp eq i64 %indvars.iv.next, 20
  br i1 %exitcond.not, label %22, label %9

22:                                               ; preds = %21
  %indvars.iv.next49 = add nsw i64 %indvars.iv48, -1
  %.not = icmp eq i64 %indvars.iv48, 0
  br i1 %.not, label %23, label %.preheader

23:                                               ; preds = %22
  %24 = trunc nuw nsw i64 %indvars.iv51 to i32
  %25 = tail call i32 (ptr, ...) @printf(ptr noundef nonnull dereferenceable(1) @.str.31, i32 noundef %24)
  %26 = tail call i32 (ptr, ...) @printf(ptr noundef nonnull dereferenceable(1) @.str.32, double noundef %.230)
  %puts = tail call i32 @puts(ptr nonnull dereferenceable(1) @str.5)
  %27 = tail call i32 (ptr, ...) @printf(ptr noundef nonnull dereferenceable(1) @.str.34, double noundef %.327, double noundef %.3)
  %indvars.iv.next52 = add nuw nsw i64 %indvars.iv51, 1
  %exitcond54.not = icmp eq i64 %indvars.iv.next52, 7
  br i1 %exitcond54.not, label %28, label %.preheader35

28:                                               ; preds = %23
  ret void
}